(dp0
Vid_tom
p1
L298418038460514314L
sVchan_pm
p2
L534111278923513887L
sVchan_tracklol
p3
L953814193658789918L
sVchan_kangourou
p4
L498598293140537374L
sVchan_twitch
p5
L540501033684828160L
sVchan_lol
p6
L540501033684828160L
s.