(dp0
VTomlora#5213
p1
(dp2
VPoints
p3
I50
sI1
(dp4
VVIT/MAD
p5
(lp6
Vnan
p7
aI0
asVSK/RGE
p8
(lp9
g7
aI0
asVG2/XL
p10
(lp11
g7
aI0
asVMSF/AST
p12
(lp13
g7
aI0
asVBDS/FNC
p14
(lp15
g7
aI0
assI2
(dp16
VRGE/MSF
p17
(lp18
g7
aI0
asVBDS/XL
p19
(lp20
g7
aI0
asVSK/MAD
p21
(lp22
g7
aI0
asVG2/AST
p23
(lp24
g7
aI0
asVVIT/FNC
p25
(lp26
g7
aI0
asss.