(dp0
VTomlora#5213
p1
(dp2
VPoints
p3
I12
sI1
(dp4
VVIT/MAD
p5
(lp6
VVIT
p7
aI5
asVSK/RGE
p8
(lp9
VRGE
p10
aI3
asVG2/XL
p11
(lp12
VG2
p13
aI10
asVMSF/AST
p14
(lp15
VMSF
p16
aI5
asVBDS/FNC
p17
(lp18
VFNC
p19
aI15
assI2
(dp20
VRGE/MSF
p21
(lp22
Vnan
p23
aI0
asVBDS/XL
p24
(lp25
g23
aI0
asVSK/MAD
p26
(lp27
g23
aI0
asVG2/AST
p28
(lp29
g23
aI0
asVVIT/FNC
p30
(lp31
g23
aI0
assI3
(dp32
g5
(lp33
g23
aI0
asg8
(lp34
g23
aI0
asg11
(lp35
g23
aI0
asg14
(lp36
g23
aI0
asg17
(lp37
g23
aI0
assI4
(dp38
g5
(lp39
g23
aI0
asg8
(lp40
g23
aI0
asg11
(lp41
g23
aI0
asg14
(lp42
g23
aI0
asg17
(lp43
g23
aI0
assI5
(dp44
g5
(lp45
g23
aI0
asg8
(lp46
g23
aI0
asg11
(lp47
g23
aI0
asg14
(lp48
g23
aI0
asg17
(lp49
g23
aI0
assI6
(dp50
g5
(lp51
g23
aI0
asg8
(lp52
g23
aI0
asg11
(lp53
g23
aI0
asg14
(lp54
g23
aI0
asg17
(lp55
g23
aI0
assI7
(dp56
g5
(lp57
g23
aI0
asg8
(lp58
g23
aI0
asg11
(lp59
g23
aI0
asg14
(lp60
g23
aI0
asg17
(lp61
g23
aI0
assI8
(dp62
g5
(lp63
g23
aI0
asg8
(lp64
g23
aI0
asg11
(lp65
g23
aI0
asg14
(lp66
g23
aI0
asg17
(lp67
g23
aI0
assI9
(dp68
g5
(lp69
g23
aI0
asg8
(lp70
g23
aI0
asg11
(lp71
g23
aI0
asg14
(lp72
g23
aI0
asg17
(lp73
g23
aI0
assI10
(dp74
g5
(lp75
g23
aI0
asg8
(lp76
g23
aI0
asg11
(lp77
g23
aI0
asg14
(lp78
g23
aI0
asg17
(lp79
g23
aI0
assI11
(dp80
g5
(lp81
g23
aI0
asg8
(lp82
g23
aI0
asg11
(lp83
g23
aI0
asg14
(lp84
g23
aI0
asg17
(lp85
g23
aI0
assI12
(dp86
g5
(lp87
g23
aI0
asg8
(lp88
g23
aI0
asg11
(lp89
g23
aI0
asg14
(lp90
g23
aI0
asg17
(lp91
g23
aI0
assI13
(dp92
g5
(lp93
g23
aI0
asg8
(lp94
g23
aI0
asg11
(lp95
g23
aI0
asg14
(lp96
g23
aI0
asg17
(lp97
g23
aI0
assI14
(dp98
g5
(lp99
g23
aI0
asg8
(lp100
g23
aI0
asg11
(lp101
g23
aI0
asg14
(lp102
g23
aI0
asg17
(lp103
g23
aI0
assI15
(dp104
g5
(lp105
g23
aI0
asg8
(lp106
g23
aI0
asg11
(lp107
g23
aI0
asg14
(lp108
g23
aI0
asg17
(lp109
g23
aI0
assI16
(dp110
g5
(lp111
g23
aI0
asg8
(lp112
g23
aI0
asg11
(lp113
g23
aI0
asg14
(lp114
g23
aI0
asg17
(lp115
g23
aI0
assI17
(dp116
g5
(lp117
g23
aI0
asg8
(lp118
g23
aI0
asg11
(lp119
g23
aI0
asg14
(lp120
g23
aI0
asg17
(lp121
g23
aI0
assI18
(dp122
g5
(lp123
g23
aI0
asg8
(lp124
g23
aI0
asg11
(lp125
g23
aI0
asg14
(lp126
g23
aI0
asg17
(lp127
g23
aI0
asss.