(dp0
VTomlora#5213
p1
(dp2
VPoints
p3
I15
sI1
(dp4
VLEC
p5
(dp6
VVIT/MAD
p7
(lp8
VVIT
p9
aI2
asVSK/RGE
p10
(lp11
VSK
p12
aI3
asVG2/XL
p13
(lp14
VG2
p15
aI5
asVMSF/AST
p16
(lp17
VMSF
p18
aI5
asVBDS/FNC
p19
(lp20
VBDS
p21
aI3
assVLFL
p22
(dp23
g7
(lp24
Vnan
p25
aI0
asg10
(lp26
g25
aI0
asg13
(lp27
g25
aI0
asg16
(lp28
g25
aI0
asg19
(lp29
g25
aI0
assVLCS
p30
(dp31
g7
(lp32
g25
aI0
asg10
(lp33
g25
aI0
asg13
(lp34
g25
aI0
asg16
(lp35
g25
aI0
asg19
(lp36
g25
aI0
asssI2
(dp37
g5
(dp38
g7
(lp39
g25
aI0
asg10
(lp40
g25
aI0
asg13
(lp41
g25
aI0
asg16
(lp42
g25
aI0
asg19
(lp43
g25
aI0
assg22
(dp44
g7
(lp45
g25
aI0
asg10
(lp46
g25
aI0
asg13
(lp47
g25
aI0
asg16
(lp48
g25
aI0
asg19
(lp49
g25
aI0
assg30
(dp50
g7
(lp51
g25
aI0
asg10
(lp52
g25
aI0
asg13
(lp53
g25
aI0
asg16
(lp54
g25
aI0
asg19
(lp55
g25
aI0
asssI3
(dp56
g5
(dp57
g7
(lp58
g25
aI0
asg10
(lp59
g25
aI0
asg13
(lp60
g25
aI0
asg16
(lp61
g25
aI0
asg19
(lp62
g25
aI0
assg22
(dp63
g7
(lp64
g25
aI0
asg10
(lp65
g25
aI0
asg13
(lp66
g25
aI0
asg16
(lp67
g25
aI0
asg19
(lp68
g25
aI0
assg30
(dp69
g7
(lp70
g25
aI0
asg10
(lp71
g25
aI0
asg13
(lp72
g25
aI0
asg16
(lp73
g25
aI0
asg19
(lp74
g25
aI0
asssI4
(dp75
g5
(dp76
g7
(lp77
g25
aI0
asg10
(lp78
g25
aI0
asg13
(lp79
g25
aI0
asg16
(lp80
g25
aI0
asg19
(lp81
g25
aI0
assg22
(dp82
g7
(lp83
g25
aI0
asg10
(lp84
g25
aI0
asg13
(lp85
g25
aI0
asg16
(lp86
g25
aI0
asg19
(lp87
g25
aI0
assg30
(dp88
g7
(lp89
g25
aI0
asg10
(lp90
g25
aI0
asg13
(lp91
g25
aI0
asg16
(lp92
g25
aI0
asg19
(lp93
g25
aI0
asssI5
(dp94
g5
(dp95
g7
(lp96
g25
aI0
asg10
(lp97
g25
aI0
asg13
(lp98
g25
aI0
asg16
(lp99
g25
aI0
asg19
(lp100
g25
aI0
assg22
(dp101
g7
(lp102
g25
aI0
asg10
(lp103
g25
aI0
asg13
(lp104
g25
aI0
asg16
(lp105
g25
aI0
asg19
(lp106
g25
aI0
assg30
(dp107
g7
(lp108
g25
aI0
asg10
(lp109
g25
aI0
asg13
(lp110
g25
aI0
asg16
(lp111
g25
aI0
asg19
(lp112
g25
aI0
asssI6
(dp113
g5
(dp114
g7
(lp115
g25
aI0
asg10
(lp116
g25
aI0
asg13
(lp117
g25
aI0
asg16
(lp118
g25
aI0
asg19
(lp119
g25
aI0
assg22
(dp120
g7
(lp121
g25
aI0
asg10
(lp122
g25
aI0
asg13
(lp123
g25
aI0
asg16
(lp124
g25
aI0
asg19
(lp125
g25
aI0
assg30
(dp126
g7
(lp127
g25
aI0
asg10
(lp128
g25
aI0
asg13
(lp129
g25
aI0
asg16
(lp130
g25
aI0
asg19
(lp131
g25
aI0
asssI7
(dp132
g5
(dp133
g7
(lp134
g25
aI0
asg10
(lp135
g25
aI0
asg13
(lp136
g25
aI0
asg16
(lp137
g25
aI0
asg19
(lp138
g25
aI0
assg22
(dp139
g7
(lp140
g25
aI0
asg10
(lp141
g25
aI0
asg13
(lp142
g25
aI0
asg16
(lp143
g25
aI0
asg19
(lp144
g25
aI0
assg30
(dp145
g7
(lp146
g25
aI0
asg10
(lp147
g25
aI0
asg13
(lp148
g25
aI0
asg16
(lp149
g25
aI0
asg19
(lp150
g25
aI0
asssI8
(dp151
g5
(dp152
g7
(lp153
g25
aI0
asg10
(lp154
g25
aI0
asg13
(lp155
g25
aI0
asg16
(lp156
g25
aI0
asg19
(lp157
g25
aI0
assg22
(dp158
g7
(lp159
g25
aI0
asg10
(lp160
g25
aI0
asg13
(lp161
g25
aI0
asg16
(lp162
g25
aI0
asg19
(lp163
g25
aI0
assg30
(dp164
g7
(lp165
g25
aI0
asg10
(lp166
g25
aI0
asg13
(lp167
g25
aI0
asg16
(lp168
g25
aI0
asg19
(lp169
g25
aI0
asssI9
(dp170
g5
(dp171
g7
(lp172
g25
aI0
asg10
(lp173
g25
aI0
asg13
(lp174
g25
aI0
asg16
(lp175
g25
aI0
asg19
(lp176
g25
aI0
assg22
(dp177
g7
(lp178
g25
aI0
asg10
(lp179
g25
aI0
asg13
(lp180
g25
aI0
asg16
(lp181
g25
aI0
asg19
(lp182
g25
aI0
assg30
(dp183
g7
(lp184
g25
aI0
asg10
(lp185
g25
aI0
asg13
(lp186
g25
aI0
asg16
(lp187
g25
aI0
asg19
(lp188
g25
aI0
asssI10
(dp189
g5
(dp190
g7
(lp191
g25
aI0
asg10
(lp192
g25
aI0
asg13
(lp193
g25
aI0
asg16
(lp194
g25
aI0
asg19
(lp195
g25
aI0
assg22
(dp196
g7
(lp197
g25
aI0
asg10
(lp198
g25
aI0
asg13
(lp199
g25
aI0
asg16
(lp200
g25
aI0
asg19
(lp201
g25
aI0
assg30
(dp202
g7
(lp203
g25
aI0
asg10
(lp204
g25
aI0
asg13
(lp205
g25
aI0
asg16
(lp206
g25
aI0
asg19
(lp207
g25
aI0
asssI11
(dp208
g5
(dp209
g7
(lp210
g25
aI0
asg10
(lp211
g25
aI0
asg13
(lp212
g25
aI0
asg16
(lp213
g25
aI0
asg19
(lp214
g25
aI0
assg22
(dp215
g7
(lp216
g25
aI0
asg10
(lp217
g25
aI0
asg13
(lp218
g25
aI0
asg16
(lp219
g25
aI0
asg19
(lp220
g25
aI0
assg30
(dp221
g7
(lp222
g25
aI0
asg10
(lp223
g25
aI0
asg13
(lp224
g25
aI0
asg16
(lp225
g25
aI0
asg19
(lp226
g25
aI0
asssI12
(dp227
g5
(dp228
g7
(lp229
g25
aI0
asg10
(lp230
g25
aI0
asg13
(lp231
g25
aI0
asg16
(lp232
g25
aI0
asg19
(lp233
g25
aI0
assg22
(dp234
g7
(lp235
g25
aI0
asg10
(lp236
g25
aI0
asg13
(lp237
g25
aI0
asg16
(lp238
g25
aI0
asg19
(lp239
g25
aI0
assg30
(dp240
g7
(lp241
g25
aI0
asg10
(lp242
g25
aI0
asg13
(lp243
g25
aI0
asg16
(lp244
g25
aI0
asg19
(lp245
g25
aI0
asssI13
(dp246
g5
(dp247
g7
(lp248
g25
aI0
asg10
(lp249
g25
aI0
asg13
(lp250
g25
aI0
asg16
(lp251
g25
aI0
asg19
(lp252
g25
aI0
assg22
(dp253
g7
(lp254
g25
aI0
asg10
(lp255
g25
aI0
asg13
(lp256
g25
aI0
asg16
(lp257
g25
aI0
asg19
(lp258
g25
aI0
assg30
(dp259
g7
(lp260
g25
aI0
asg10
(lp261
g25
aI0
asg13
(lp262
g25
aI0
asg16
(lp263
g25
aI0
asg19
(lp264
g25
aI0
asssI14
(dp265
g5
(dp266
g7
(lp267
g25
aI0
asg10
(lp268
g25
aI0
asg13
(lp269
g25
aI0
asg16
(lp270
g25
aI0
asg19
(lp271
g25
aI0
assg22
(dp272
g7
(lp273
g25
aI0
asg10
(lp274
g25
aI0
asg13
(lp275
g25
aI0
asg16
(lp276
g25
aI0
asg19
(lp277
g25
aI0
assg30
(dp278
g7
(lp279
g25
aI0
asg10
(lp280
g25
aI0
asg13
(lp281
g25
aI0
asg16
(lp282
g25
aI0
asg19
(lp283
g25
aI0
asssI15
(dp284
g5
(dp285
g7
(lp286
g25
aI0
asg10
(lp287
g25
aI0
asg13
(lp288
g25
aI0
asg16
(lp289
g25
aI0
asg19
(lp290
g25
aI0
assg22
(dp291
g7
(lp292
g25
aI0
asg10
(lp293
g25
aI0
asg13
(lp294
g25
aI0
asg16
(lp295
g25
aI0
asg19
(lp296
g25
aI0
assg30
(dp297
g7
(lp298
g25
aI0
asg10
(lp299
g25
aI0
asg13
(lp300
g25
aI0
asg16
(lp301
g25
aI0
asg19
(lp302
g25
aI0
asssI16
(dp303
g5
(dp304
g7
(lp305
g25
aI0
asg10
(lp306
g25
aI0
asg13
(lp307
g25
aI0
asg16
(lp308
g25
aI0
asg19
(lp309
g25
aI0
assg22
(dp310
g7
(lp311
g25
aI0
asg10
(lp312
g25
aI0
asg13
(lp313
g25
aI0
asg16
(lp314
g25
aI0
asg19
(lp315
g25
aI0
assg30
(dp316
g7
(lp317
g25
aI0
asg10
(lp318
g25
aI0
asg13
(lp319
g25
aI0
asg16
(lp320
g25
aI0
asg19
(lp321
g25
aI0
asssI17
(dp322
g5
(dp323
g7
(lp324
g25
aI0
asg10
(lp325
g25
aI0
asg13
(lp326
g25
aI0
asg16
(lp327
g25
aI0
asg19
(lp328
g25
aI0
assg22
(dp329
g7
(lp330
g25
aI0
asg10
(lp331
g25
aI0
asg13
(lp332
g25
aI0
asg16
(lp333
g25
aI0
asg19
(lp334
g25
aI0
assg30
(dp335
g7
(lp336
g25
aI0
asg10
(lp337
g25
aI0
asg13
(lp338
g25
aI0
asg16
(lp339
g25
aI0
asg19
(lp340
g25
aI0
asssI18
(dp341
g5
(dp342
g7
(lp343
g25
aI0
asg10
(lp344
g25
aI0
asg13
(lp345
g25
aI0
asg16
(lp346
g25
aI0
asg19
(lp347
g25
aI0
assg22
(dp348
g7
(lp349
g25
aI0
asg10
(lp350
g25
aI0
asg13
(lp351
g25
aI0
asg16
(lp352
g25
aI0
asg19
(lp353
g25
aI0
assg30
(dp354
g7
(lp355
g25
aI0
asg10
(lp356
g25
aI0
asg13
(lp357
g25
aI0
asg16
(lp358
g25
aI0
asg19
(lp359
g25
aI0
assss.