(dp0
VTomlora#5213
p1
(dp2
VPoints
p3
F57.5
sI2
(dp4
VLEC
p5
(dp6
VSK/AST
p7
(lp8
VSK
p9
aI5
asVRGE/XL
p10
(lp11
VRGE
p12
aI0
asVVIT/MSF
p13
(lp14
VVIT
p15
aI0
asVBDS/G2
p16
(lp17
VBDS
p18
aI0
asVMAD/FNC
p19
(lp20
VFNC
p21
aI5
assss.