(dp0
VTomlora#5213
p1
(dp2
VPoints
p3
I50
sI1
(dp4
VVIT/MAD
p5
(lp6
VVIT
p7
aI5
asVSK/RGE
p8
(lp9
Vnan
p10
aI0
asVG2/XL
p11
(lp12
g10
aI0
asVMSF/AST
p13
(lp14
g10
aI0
asVBDS/FNC
p15
(lp16
g10
aI0
assI2
(dp17
VRGE/MSF
p18
(lp19
g10
aI0
asVBDS/XL
p20
(lp21
g10
aI0
asVSK/MAD
p22
(lp23
g10
aI0
asVG2/AST
p24
(lp25
g10
aI0
asVVIT/FNC
p26
(lp27
g10
aI0
asss.