(dp0
VTomlora#5213
p1
(dp2
VPoints
p3
I17
sI2
(dp4
VLEC
p5
(dp6
VRGE/MSF
p7
(lp8
VRGE
p9
aI5
asVBDS/XL
p10
(lp11
VBDS
p12
aI3
asVSK/MAD
p13
(lp14
VSK
p15
aI3
asVG2/AST
p16
(lp17
VG2
p18
aI5
asVVIT/FNC
p19
(lp20
VVIT
p21
aI3
asssI3
(dp22
VLEC
p23
(dp24
VBDS/MSF
p25
(lp26
VBDS
p27
aI2
asVVIT/XL
p28
(lp29
VVIT
p30
aI3
asVRGE/AST
p31
(lp32
VRGE
p33
aI3
asVSK/FNC
p34
(lp35
VSK
p36
aI3
asVMAD/G2
p37
(lp38
VMAD
p39
aI3
assss.