(dp0
VTomlora#5213
p1
(dp2
VPoints
p3
I18
sI1
(dp4
VLEC
p5
(dp6
VVIT/MAD
p7
(lp8
VVIT
p9
aI5
asVSK/RGE
p10
(lp11
VSK
p12
aI3
asVG2/XL
p13
(lp14
VG2
p15
aI3
asVMSF/AST
p16
(lp17
VMSF
p18
aI3
asVBDS/FNC
p19
(lp20
VBDS
p21
aI5
asssI2
(dp22
VLEC
p23
(dp24
VRGE/MSF
p25
(lp26
VRGE
p27
aI2
asVBDS/XL
p28
(lp29
VBDS
p30
aI3
asVSK/MAD
p31
(lp32
VSK
p33
aI2
asVG2/AST
p34
(lp35
VG2
p36
aI3
asVVIT/FNC
p37
(lp38
VVIT
p39
aI3
assss.