(dp0
I1
(dp1
VVIT/MAD
p2
(lp3
I1
aF1.5
asVSK/RGE
p4
(lp5
I1
aF1.5
asVG2/XL
p6
(lp7
I1
aF1.5
asVMSF/AST
p8
(lp9
I1
aF1.5
asVBDS/FNC
p10
(lp11
I1
aF1.5
assI2
(dp12
VRGE/MSF
p13
(lp14
I1
aF1.5
asVBDS/XL
p15
(lp16
I1
aF1.5
asVSK/MAD
p17
(lp18
I1
aF1.5
asVG2/AST
p19
(lp20
I1
aF1.5
asVVIT/FNC
p21
(lp22
I1
aF1.5
assI3
(dp23
g13
(lp24
I1
aF1.5
asg15
(lp25
I1
aF1.5
asg17
(lp26
I1
aF1.5
asg19
(lp27
I1
aF1.5
asg21
(lp28
I1
aF1.5
assI4
(dp29
g13
(lp30
I1
aF1.5
asg15
(lp31
I1
aF1.5
asg17
(lp32
I1
aF1.5
asg19
(lp33
I1
aF1.5
asg21
(lp34
I1
aF1.5
assI5
(dp35
g13
(lp36
I1
aF1.5
asg15
(lp37
I1
aF1.5
asg17
(lp38
I1
aF1.5
asg19
(lp39
I1
aF1.5
asg21
(lp40
I1
aF1.5
assI6
(dp41
g13
(lp42
I1
aF1.5
asg15
(lp43
I1
aF1.5
asg17
(lp44
I1
aF1.5
asg19
(lp45
I1
aF1.5
asg21
(lp46
I1
aF1.5
assI7
(dp47
g13
(lp48
I1
aF1.5
asg15
(lp49
I1
aF1.5
asg17
(lp50
I1
aF1.5
asg19
(lp51
I1
aF1.5
asg21
(lp52
I1
aF1.5
assI8
(dp53
g13
(lp54
I1
aF1.5
asg15
(lp55
I1
aF1.5
asg17
(lp56
I1
aF1.5
asg19
(lp57
I1
aF1.5
asg21
(lp58
I1
aF1.5
assI9
(dp59
g13
(lp60
I1
aF1.5
asg15
(lp61
I1
aF1.5
asg17
(lp62
I1
aF1.5
asg19
(lp63
I1
aF1.5
asg21
(lp64
I1
aF1.5
assI10
(dp65
g13
(lp66
I1
aF1.5
asg15
(lp67
I1
aF1.5
asg17
(lp68
I1
aF1.5
asg19
(lp69
I1
aF1.5
asg21
(lp70
I1
aF1.5
assI11
(dp71
g13
(lp72
I1
aF1.5
asg15
(lp73
I1
aF1.5
asg17
(lp74
I1
aF1.5
asg19
(lp75
I1
aF1.5
asg21
(lp76
I1
aF1.5
assI12
(dp77
g13
(lp78
I1
aF1.5
asg15
(lp79
I1
aF1.5
asg17
(lp80
I1
aF1.5
asg19
(lp81
I1
aF1.5
asg21
(lp82
I1
aF1.5
assI13
(dp83
g13
(lp84
I1
aF1.5
asg15
(lp85
I1
aF1.5
asg17
(lp86
I1
aF1.5
asg19
(lp87
I1
aF1.5
asg21
(lp88
I1
aF1.5
assI14
(dp89
g13
(lp90
I1
aF1.5
asg15
(lp91
I1
aF1.5
asg17
(lp92
I1
aF1.5
asg19
(lp93
I1
aF1.5
asg21
(lp94
I1
aF1.5
assI15
(dp95
g13
(lp96
I1
aF1.5
asg15
(lp97
I1
aF1.5
asg17
(lp98
I1
aF1.5
asg19
(lp99
I1
aF1.5
asg21
(lp100
I1
aF1.5
assI16
(dp101
g13
(lp102
I1
aF1.5
asg15
(lp103
I1
aF1.5
asg17
(lp104
I1
aF1.5
asg19
(lp105
I1
aF1.5
asg21
(lp106
I1
aF1.5
assI17
(dp107
g13
(lp108
I1
aF1.5
asg15
(lp109
I1
aF1.5
asg17
(lp110
I1
aF1.5
asg19
(lp111
I1
aF1.5
asg21
(lp112
I1
aF1.5
assI18
(dp113
g13
(lp114
I1
aF1.5
asg15
(lp115
I1
aF1.5
asg17
(lp116
I1
aF1.5
asg19
(lp117
I1
aF1.5
asg21
(lp118
I1
aF1.5
ass.