(dp0
I1
(dp1
VVIT/MAD
p2
(lp3
I1
aF1.5
asVSK/RGE
p4
(lp5
I1
aF1.5
asVG2/XL
p6
(lp7
I1
aF1.5
asVMSF/AST
p8
(lp9
I1
aF1.5
asVBDS/FNC
p10
(lp11
I1
aF1.5
assI2
(dp12
VRGE/MSF
p13
(lp14
I1
aF1.5
asVBDS/XL
p15
(lp16
I1
aF1.5
asVSK/MAD
p17
(lp18
I1
aF1.5
asVG2/AST
p19
(lp20
I1
aF1.5
asVVIT/FNC
p21
(lp22
I1
aF1.5
ass.