(dp0
I1
(dp1
VLEC
p2
(dp3
VVIT/MAD
p4
(lp5
I1
aF1.5
asVSK/RGE
p6
(lp7
I1
aF1.5
asVG2/XL
p8
(lp9
I1
aF1.5
asVMSF/AST
p10
(lp11
I1
aF1.5
asVBDS/FNC
p12
(lp13
I1
aF1.5
assVLFL
p14
(dp15
g4
(lp16
I1
aF1.5
asg6
(lp17
I1
aF1.5
asg8
(lp18
I1
aF1.5
asg10
(lp19
I1
aF1.5
asg12
(lp20
I1
aF1.5
assVLCS
p21
(dp22
g4
(lp23
I1
aF1.5
asg6
(lp24
I1
aF1.5
asg8
(lp25
I1
aF1.5
asg10
(lp26
I1
aF1.5
asg12
(lp27
I1
aF1.5
asssI2
(dp28
g2
(dp29
g4
(lp30
I1
aF1.5
asg6
(lp31
I1
aF1.5
asg8
(lp32
I1
aF1.5
asg10
(lp33
I1
aF1.5
asg12
(lp34
I1
aF1.5
assg14
(dp35
g4
(lp36
I1
aF1.5
asg6
(lp37
I1
aF1.5
asg8
(lp38
I1
aF1.5
asg10
(lp39
I1
aF1.5
asg12
(lp40
I1
aF1.5
assg21
(dp41
g4
(lp42
I1
aF1.5
asg6
(lp43
I1
aF1.5
asg8
(lp44
I1
aF1.5
asg10
(lp45
I1
aF1.5
asg12
(lp46
I1
aF1.5
asssI3
(dp47
g2
(dp48
g4
(lp49
I1
aF1.5
asg6
(lp50
I1
aF1.5
asg8
(lp51
I1
aF1.5
asg10
(lp52
I1
aF1.5
asg12
(lp53
I1
aF1.5
assg14
(dp54
g4
(lp55
I1
aF1.5
asg6
(lp56
I1
aF1.5
asg8
(lp57
I1
aF1.5
asg10
(lp58
I1
aF1.5
asg12
(lp59
I1
aF1.5
assg21
(dp60
g4
(lp61
I1
aF1.5
asg6
(lp62
I1
aF1.5
asg8
(lp63
I1
aF1.5
asg10
(lp64
I1
aF1.5
asg12
(lp65
I1
aF1.5
asssI4
(dp66
g2
(dp67
g4
(lp68
I1
aF1.5
asg6
(lp69
I1
aF1.5
asg8
(lp70
I1
aF1.5
asg10
(lp71
I1
aF1.5
asg12
(lp72
I1
aF1.5
assg14
(dp73
g4
(lp74
I1
aF1.5
asg6
(lp75
I1
aF1.5
asg8
(lp76
I1
aF1.5
asg10
(lp77
I1
aF1.5
asg12
(lp78
I1
aF1.5
assg21
(dp79
g4
(lp80
I1
aF1.5
asg6
(lp81
I1
aF1.5
asg8
(lp82
I1
aF1.5
asg10
(lp83
I1
aF1.5
asg12
(lp84
I1
aF1.5
asssI5
(dp85
g2
(dp86
g4
(lp87
I1
aF1.5
asg6
(lp88
I1
aF1.5
asg8
(lp89
I1
aF1.5
asg10
(lp90
I1
aF1.5
asg12
(lp91
I1
aF1.5
assg14
(dp92
g4
(lp93
I1
aF1.5
asg6
(lp94
I1
aF1.5
asg8
(lp95
I1
aF1.5
asg10
(lp96
I1
aF1.5
asg12
(lp97
I1
aF1.5
assg21
(dp98
g4
(lp99
I1
aF1.5
asg6
(lp100
I1
aF1.5
asg8
(lp101
I1
aF1.5
asg10
(lp102
I1
aF1.5
asg12
(lp103
I1
aF1.5
asssI6
(dp104
g2
(dp105
g4
(lp106
I1
aF1.5
asg6
(lp107
I1
aF1.5
asg8
(lp108
I1
aF1.5
asg10
(lp109
I1
aF1.5
asg12
(lp110
I1
aF1.5
assg14
(dp111
g4
(lp112
I1
aF1.5
asg6
(lp113
I1
aF1.5
asg8
(lp114
I1
aF1.5
asg10
(lp115
I1
aF1.5
asg12
(lp116
I1
aF1.5
assg21
(dp117
g4
(lp118
I1
aF1.5
asg6
(lp119
I1
aF1.5
asg8
(lp120
I1
aF1.5
asg10
(lp121
I1
aF1.5
asg12
(lp122
I1
aF1.5
asssI7
(dp123
g2
(dp124
g4
(lp125
I1
aF1.5
asg6
(lp126
I1
aF1.5
asg8
(lp127
I1
aF1.5
asg10
(lp128
I1
aF1.5
asg12
(lp129
I1
aF1.5
assg14
(dp130
g4
(lp131
I1
aF1.5
asg6
(lp132
I1
aF1.5
asg8
(lp133
I1
aF1.5
asg10
(lp134
I1
aF1.5
asg12
(lp135
I1
aF1.5
assg21
(dp136
g4
(lp137
I1
aF1.5
asg6
(lp138
I1
aF1.5
asg8
(lp139
I1
aF1.5
asg10
(lp140
I1
aF1.5
asg12
(lp141
I1
aF1.5
asssI8
(dp142
g2
(dp143
g4
(lp144
I1
aF1.5
asg6
(lp145
I1
aF1.5
asg8
(lp146
I1
aF1.5
asg10
(lp147
I1
aF1.5
asg12
(lp148
I1
aF1.5
assg14
(dp149
g4
(lp150
I1
aF1.5
asg6
(lp151
I1
aF1.5
asg8
(lp152
I1
aF1.5
asg10
(lp153
I1
aF1.5
asg12
(lp154
I1
aF1.5
assg21
(dp155
g4
(lp156
I1
aF1.5
asg6
(lp157
I1
aF1.5
asg8
(lp158
I1
aF1.5
asg10
(lp159
I1
aF1.5
asg12
(lp160
I1
aF1.5
asssI9
(dp161
g2
(dp162
g4
(lp163
I1
aF1.5
asg6
(lp164
I1
aF1.5
asg8
(lp165
I1
aF1.5
asg10
(lp166
I1
aF1.5
asg12
(lp167
I1
aF1.5
assg14
(dp168
g4
(lp169
I1
aF1.5
asg6
(lp170
I1
aF1.5
asg8
(lp171
I1
aF1.5
asg10
(lp172
I1
aF1.5
asg12
(lp173
I1
aF1.5
assg21
(dp174
g4
(lp175
I1
aF1.5
asg6
(lp176
I1
aF1.5
asg8
(lp177
I1
aF1.5
asg10
(lp178
I1
aF1.5
asg12
(lp179
I1
aF1.5
asssI10
(dp180
g2
(dp181
g4
(lp182
I1
aF1.5
asg6
(lp183
I1
aF1.5
asg8
(lp184
I1
aF1.5
asg10
(lp185
I1
aF1.5
asg12
(lp186
I1
aF1.5
assg14
(dp187
g4
(lp188
I1
aF1.5
asg6
(lp189
I1
aF1.5
asg8
(lp190
I1
aF1.5
asg10
(lp191
I1
aF1.5
asg12
(lp192
I1
aF1.5
assg21
(dp193
g4
(lp194
I1
aF1.5
asg6
(lp195
I1
aF1.5
asg8
(lp196
I1
aF1.5
asg10
(lp197
I1
aF1.5
asg12
(lp198
I1
aF1.5
asssI11
(dp199
g2
(dp200
g4
(lp201
I1
aF1.5
asg6
(lp202
I1
aF1.5
asg8
(lp203
I1
aF1.5
asg10
(lp204
I1
aF1.5
asg12
(lp205
I1
aF1.5
assg14
(dp206
g4
(lp207
I1
aF1.5
asg6
(lp208
I1
aF1.5
asg8
(lp209
I1
aF1.5
asg10
(lp210
I1
aF1.5
asg12
(lp211
I1
aF1.5
assg21
(dp212
g4
(lp213
I1
aF1.5
asg6
(lp214
I1
aF1.5
asg8
(lp215
I1
aF1.5
asg10
(lp216
I1
aF1.5
asg12
(lp217
I1
aF1.5
asssI12
(dp218
g2
(dp219
g4
(lp220
I1
aF1.5
asg6
(lp221
I1
aF1.5
asg8
(lp222
I1
aF1.5
asg10
(lp223
I1
aF1.5
asg12
(lp224
I1
aF1.5
assg14
(dp225
g4
(lp226
I1
aF1.5
asg6
(lp227
I1
aF1.5
asg8
(lp228
I1
aF1.5
asg10
(lp229
I1
aF1.5
asg12
(lp230
I1
aF1.5
assg21
(dp231
g4
(lp232
I1
aF1.5
asg6
(lp233
I1
aF1.5
asg8
(lp234
I1
aF1.5
asg10
(lp235
I1
aF1.5
asg12
(lp236
I1
aF1.5
asssI13
(dp237
g2
(dp238
g4
(lp239
I1
aF1.5
asg6
(lp240
I1
aF1.5
asg8
(lp241
I1
aF1.5
asg10
(lp242
I1
aF1.5
asg12
(lp243
I1
aF1.5
assg14
(dp244
g4
(lp245
I1
aF1.5
asg6
(lp246
I1
aF1.5
asg8
(lp247
I1
aF1.5
asg10
(lp248
I1
aF1.5
asg12
(lp249
I1
aF1.5
assg21
(dp250
g4
(lp251
I1
aF1.5
asg6
(lp252
I1
aF1.5
asg8
(lp253
I1
aF1.5
asg10
(lp254
I1
aF1.5
asg12
(lp255
I1
aF1.5
asssI14
(dp256
g2
(dp257
g4
(lp258
I1
aF1.5
asg6
(lp259
I1
aF1.5
asg8
(lp260
I1
aF1.5
asg10
(lp261
I1
aF1.5
asg12
(lp262
I1
aF1.5
assg14
(dp263
g4
(lp264
I1
aF1.5
asg6
(lp265
I1
aF1.5
asg8
(lp266
I1
aF1.5
asg10
(lp267
I1
aF1.5
asg12
(lp268
I1
aF1.5
assg21
(dp269
g4
(lp270
I1
aF1.5
asg6
(lp271
I1
aF1.5
asg8
(lp272
I1
aF1.5
asg10
(lp273
I1
aF1.5
asg12
(lp274
I1
aF1.5
asssI15
(dp275
g2
(dp276
g4
(lp277
I1
aF1.5
asg6
(lp278
I1
aF1.5
asg8
(lp279
I1
aF1.5
asg10
(lp280
I1
aF1.5
asg12
(lp281
I1
aF1.5
assg14
(dp282
g4
(lp283
I1
aF1.5
asg6
(lp284
I1
aF1.5
asg8
(lp285
I1
aF1.5
asg10
(lp286
I1
aF1.5
asg12
(lp287
I1
aF1.5
assg21
(dp288
g4
(lp289
I1
aF1.5
asg6
(lp290
I1
aF1.5
asg8
(lp291
I1
aF1.5
asg10
(lp292
I1
aF1.5
asg12
(lp293
I1
aF1.5
asssI16
(dp294
g2
(dp295
g4
(lp296
I1
aF1.5
asg6
(lp297
I1
aF1.5
asg8
(lp298
I1
aF1.5
asg10
(lp299
I1
aF1.5
asg12
(lp300
I1
aF1.5
assg14
(dp301
g4
(lp302
I1
aF1.5
asg6
(lp303
I1
aF1.5
asg8
(lp304
I1
aF1.5
asg10
(lp305
I1
aF1.5
asg12
(lp306
I1
aF1.5
assg21
(dp307
g4
(lp308
I1
aF1.5
asg6
(lp309
I1
aF1.5
asg8
(lp310
I1
aF1.5
asg10
(lp311
I1
aF1.5
asg12
(lp312
I1
aF1.5
asssI17
(dp313
g2
(dp314
g4
(lp315
I1
aF1.5
asg6
(lp316
I1
aF1.5
asg8
(lp317
I1
aF1.5
asg10
(lp318
I1
aF1.5
asg12
(lp319
I1
aF1.5
assg14
(dp320
g4
(lp321
I1
aF1.5
asg6
(lp322
I1
aF1.5
asg8
(lp323
I1
aF1.5
asg10
(lp324
I1
aF1.5
asg12
(lp325
I1
aF1.5
assg21
(dp326
g4
(lp327
I1
aF1.5
asg6
(lp328
I1
aF1.5
asg8
(lp329
I1
aF1.5
asg10
(lp330
I1
aF1.5
asg12
(lp331
I1
aF1.5
asssI18
(dp332
g2
(dp333
g4
(lp334
I1
aF1.5
asg6
(lp335
I1
aF1.5
asg8
(lp336
I1
aF1.5
asg10
(lp337
I1
aF1.5
asg12
(lp338
I1
aF1.5
assg14
(dp339
g4
(lp340
I1
aF1.5
asg6
(lp341
I1
aF1.5
asg8
(lp342
I1
aF1.5
asg10
(lp343
I1
aF1.5
asg12
(lp344
I1
aF1.5
assg21
(dp345
g4
(lp346
I1
aF1.5
asg6
(lp347
I1
aF1.5
asg8
(lp348
I1
aF1.5
asg10
(lp349
I1
aF1.5
asg12
(lp350
I1
aF1.5
asss.