(dp0
I1
(dp1
VLEC
p2
(dp3
VVIT/MAD
p4
(lp5
F1.5
aF1.5
asVSK/RGE
p6
(lp7
F1.5
aF1.5
asVG2/XL
p8
(lp9
F1.5
aF1.5
asVMSF/AST
p10
(lp11
F1.5
aF1.5
asVBDS/FNC
p12
(lp13
F1.5
aF1.5
assVLFL
p14
(dp15
VMSFP/KC
p16
(lp17
F1.5
aF1.5
asVGO/GW
p18
(lp19
F1.5
aF1.5
asVVITB/SLY
p20
(lp21
F1.5
aF1.5
asVOPL/BDS.A
p22
(lp23
F1.5
aF1.5
asVME/LDLC
p24
(lp25
F1.5
aF1.5
assVLCS
p26
(dp27
VTSM/EG
p28
(lp29
F1.5
aF1.5
asVFLY/CLG
p30
(lp31
F1.5
aF1.5
asVTL/100
p32
(lp33
F1.5
aF1.5
asVGG/C9
p34
(lp35
F1.5
aF1.5
asVIMT/DIG
p36
(lp37
F1.5
aF1.5
asssI2
(dp38
g2
(dp39
VRGE/MSF
p40
(lp41
F1.5
aF1.5
asVBDS/XL
p42
(lp43
F1.5
aF1.5
asVSK/MAD
p44
(lp45
F1.5
aF1.5
asVG2/AST
p46
(lp47
F1.5
aF1.5
asVVIT/FNC
p48
(lp49
F1.5
aF1.5
assg14
(dp50
VLDLC/GW
p51
(lp52
F1.5
aF1.5
asVSLY/BDS.A
p53
(lp54
F1.5
aF1.5
asVME/KC
p55
(lp56
F1.5
aF1.5
asVVITB/GO
p57
(lp58
F1.5
aF1.5
asVMSFP/OPL
p59
(lp60
F1.5
aF1.5
assg26
(dp61
VCLG/100
p62
(lp63
F1.5
aF1.5
asVTSM/DIG
p64
(lp65
F1.5
aF1.5
asVEG/C9
p66
(lp67
F1.5
aF1.5
asVGG/FLY
p68
(lp69
F1.5
aF1.5
asVIMT/TL
p70
(lp71
F1.5
aF1.5
asssI3
(dp72
g2
(dp73
VBDS/MSF
p74
(lp75
F1.5
aF1.5
asVVIT/XL
p76
(lp77
F1.5
aF1.5
asVRGE/AST
p78
(lp79
F1.5
aF1.5
asVSK/FNC
p80
(lp81
F1.5
aF1.5
asVMAD/G2
p82
(lp83
F1.5
aF1.5
assg14
(dp84
VGW/SLY
p85
(lp86
F1.5
aF1.5
asVVITB/OPL
p87
(lp88
F1.5
aF1.5
asVMSFP/ME
p89
(lp90
F1.5
aF1.5
asVKC/BDS.A
p91
(lp92
F1.5
aF1.5
asVLDLC/GO
p93
(lp94
F1.5
aF1.5
assg26
(dp95
VEG/DIG
p96
(lp97
F1.5
aF1.5
asVIMT/100
p98
(lp99
F1.5
aF1.5
asVTL/C9
p100
(lp101
F1.5
aF1.5
asVGG/CLG
p102
(lp103
F1.5
aF1.5
asVTSM/FLY
p104
(lp105
F1.5
aF1.5
asssI4
(dp106
g2
(dp107
VMSF/XL
p108
(lp109
F1.5
aF1.5
asVFNC/AST
p110
(lp111
F1.5
aF1.5
asVSK/G2
p112
(lp113
F1.5
aF1.5
asVVIT/BDS
p114
(lp115
F1.5
aF1.5
asVRGE/MAD
p116
(lp117
F1.5
aF1.5
assg14
(dp118
VBDS.A/GW
p119
(lp120
F1.5
aF1.5
asVME/VITB
p121
(lp122
F1.5
aF1.5
asVGO/KC
p123
(lp124
F1.5
aF1.5
asVMSFP/LDLC
p125
(lp126
F1.5
aF1.5
asVOPL/SLY
p127
(lp128
F1.5
aF1.5
assg26
(dp129
VIMT/C9
p130
(lp131
F1.5
aF1.5
asVTSM/GG
p132
(lp133
F1.5
aF1.5
asVEG/100
p134
(lp135
F1.5
aF1.5
asVTL/FLY
p136
(lp137
F1.5
aF1.5
asVDIG/CLG
p138
(lp139
F1.5
aF1.5
asssI5
(dp140
g2
(dp141
VSK/XL
p142
(lp143
F1.5
aF1.5
asVMAD/AST
p144
(lp145
F1.5
aF1.5
asVBDS/RGE
p146
(lp147
F1.5
aF1.5
asVMSF/FNC
p148
(lp149
F1.5
aF1.5
asVVIT/G2
p150
(lp151
F1.5
aF1.5
assg14
(dp152
VOPL/GO
p153
(lp154
F1.5
aF1.5
asVME/SLY
p155
(lp156
F1.5
aF1.5
asVKC/LDLC
p157
(lp158
F1.5
aF1.5
asVVITB/BDS.A
p159
(lp160
F1.5
aF1.5
asVGW/MSFP
p161
(lp162
F1.5
aF1.5
assg26
(dp163
VGG/100
p164
(lp165
F1.5
aF1.5
asVIMT/TSM
p166
(lp167
F1.5
aF1.5
asVTL/EG
p168
(lp169
F1.5
aF1.5
asVFLY/DIG
p170
(lp171
F1.5
aF1.5
asVCLG/C9
p172
(lp173
F1.5
aF1.5
asssI6
(dp174
g2
(dp175
VBDS/AST
p176
(lp177
F1.5
aF1.5
asVMAD/XL
p178
(lp179
F1.5
aF1.5
asVVIT/SK
p180
(lp181
F1.5
aF1.5
asVRGE/FNC
p182
(lp183
F1.5
aF1.5
asVMSF/G2
p184
(lp185
F1.5
aF1.5
assg14
(dp186
VOPL/ME
p187
(lp188
F1.5
aF1.5
asVGO/MSFP
p189
(lp190
F1.5
aF1.5
asVLDLC/BDS.A
p191
(lp192
F1.5
aF1.5
asVSLY/KC
p193
(lp194
F1.5
aF1.5
asVGW/VITB
p195
(lp196
F1.5
aF1.5
assg26
(dp197
VIMT/EG
p198
(lp199
F1.5
aF1.5
asVFLY/100
p200
(lp201
F1.5
aF1.5
asVTSM/C9
p202
(lp203
F1.5
aF1.5
asVGG/DIG
p204
(lp205
F1.5
aF1.5
asVTL/CLG
p206
(lp207
F1.5
aF1.5
asssI7
(dp208
g2
(dp209
VBDS/SK
p210
(lp211
F1.5
aF1.5
asVXL/AST
p212
(lp213
F1.5
aF1.5
asVMSF/MAD
p214
(lp215
F1.5
aF1.5
asVVIT/RGE
p216
(lp217
F1.5
aF1.5
asVG2/FNC
p218
(lp219
F1.5
aF1.5
assg14
(dp220
VLDLC/OPL
p221
(lp222
F1.5
aF1.5
asVME/BDS.A
p223
(lp224
F1.5
aF1.5
asVKC/GW
p225
(lp226
F1.5
aF1.5
asVVITB/MSFP
p227
(lp228
F1.5
aF1.5
asVSLY/GO
p229
(lp230
F1.5
aF1.5
assg26
(dp231
VDIG/C9
p232
(lp233
F1.5
aF1.5
asVTL/GG
p234
(lp235
F1.5
aF1.5
asVTSM/100
p236
(lp237
F1.5
aF1.5
asVIMT/CLG
p238
(lp239
F1.5
aF1.5
asVTL/DIG
p240
(lp241
F1.5
aF1.5
asssI8
(dp242
g2
(dp243
VSK/AST
p244
(lp245
F1.5
aF1.5
asVRGE/XL
p246
(lp247
F1.5
aF1.5
asVVIT/MSF
p248
(lp249
F1.5
aF1.5
asVBDS/G2
p250
(lp251
F1.5
aF1.5
asVMAD/FNC
p252
(lp253
F1.5
aF1.5
assg14
(dp254
VGO/ME
p255
(lp256
F1.5
aF1.5
asVGW/OPL
p257
(lp258
F1.5
aF1.5
asVLDLC/SLY
p259
(lp260
F1.5
aF1.5
asVVITB/KC
p261
(lp262
F1.5
aF1.5
asVBDS.A/MSFP
p263
(lp264
F1.5
aF1.5
assg26
(dp265
VTSM/CLG
p266
(lp267
F1.5
aF1.5
asVC9/100
p268
(lp269
F1.5
aF1.5
asVEG/FLY
p270
(lp271
F1.5
aF1.5
asVIMT/FLY
p272
(lp273
F1.5
aF1.5
asVGG/EG
p274
(lp275
F1.5
aF1.5
asssI9
(dp276
g2
(dp277
VSK/MSF
p278
(lp279
F1.5
aF1.5
asVBDS/MAD
p280
(lp281
F1.5
aF1.5
asVVIT/AST
p282
(lp283
F1.5
aF1.5
asVFNC/XL
p284
(lp285
F1.5
aF1.5
asVRGE/G2
p286
(lp287
F1.5
aF1.5
assg14
(dp288
VGO/BDS.A
p289
(lp290
F1.5
aF1.5
asVOPL/KC
p291
(lp292
F1.5
aF1.5
asVSLY/MSFP
p293
(lp294
F1.5
aF1.5
asVVITB/LDLC
p295
(lp296
F1.5
aF1.5
asVME/GW
p297
(lp298
F1.5
aF1.5
assg26
(dp299
VTSM/TL
p300
(lp301
F1.5
aF1.5
asVEG/CLG
p302
(lp303
F1.5
aF1.5
asVFLY/C9
p304
(lp305
F1.5
aF1.5
asVIMT/GG
p306
(lp307
F1.5
aF1.5
asVDIG/100
p308
(lp309
F1.5
aF1.5
asssI10
(dp310
g2
(dp311
VBDS/MSF
p312
(lp313
F1.5
aF1.5
asVRGE/AST
p314
(lp315
F1.5
aF1.5
asVVIT/XL
p316
(lp317
F1.5
aF1.5
asVSK/FNC
p318
(lp319
F1.5
aF1.5
asVMAD/G2
p320
(lp321
F1.5
aF1.5
assg14
(dp322
VGW/GO
p323
(lp324
F1.5
aF1.5
asVLDLC/ME
p325
(lp326
F1.5
aF1.5
asVMSFP/KC
p327
(lp328
F1.5
aF1.5
asVSLY/VITB
p329
(lp330
F1.5
aF1.5
asVOPL/BDS.A
p331
(lp332
F1.5
aF1.5
assg26
(dp333
VIMT/EG
p334
(lp335
F1.5
aF1.5
asVTSM/FLY
p336
(lp337
F1.5
aF1.5
asVTL/100
p338
(lp339
F1.5
aF1.5
asVGG/C9
p340
(lp341
F1.5
aF1.5
asVDIG/CLG
p342
(lp343
F1.5
aF1.5
asssI11
(dp344
g2
(dp345
VBDS/XL
p346
(lp347
F1.5
aF1.5
asVSK/MAD
p348
(lp349
F1.5
aF1.5
asVRGE/MSF
p350
(lp351
F1.5
aF1.5
asVG2/AST
p352
(lp353
F1.5
aF1.5
asVVIT/FNC
p354
(lp355
F1.5
aF1.5
assg14
(dp356
VOPL/MSFP
p357
(lp358
F1.5
aF1.5
asVGW/LDLC
p359
(lp360
F1.5
aF1.5
asVKC/ME
p361
(lp362
F1.5
aF1.5
asVBDS.A/SLY
p363
(lp364
F1.5
aF1.5
asVVITB/GO
p365
(lp366
F1.5
aF1.5
assg26
(dp367
VIMT/TL
p368
(lp369
F1.5
aF1.5
asVCLG/100
p370
(lp371
F1.5
aF1.5
asVEG/C9
p372
(lp373
F1.5
aF1.5
asVFLY/DIG
p374
(lp375
F1.5
aF1.5
asVTSM/GG
p376
(lp377
F1.5
aF1.5
asssI12
(dp378
g2
(dp379
VFNC/AST
p380
(lp381
F1.5
aF1.5
asVMSF/XL
p382
(lp383
F1.5
aF1.5
asVVIT/BDS
p384
(lp385
F1.5
aF1.5
asVSK/G2
p386
(lp387
F1.5
aF1.5
asVRGE/MAD
p388
(lp389
F1.5
aF1.5
assg14
(dp390
VOPL/VITB
p391
(lp392
F1.5
aF1.5
asVGO/LDLC
p393
(lp394
F1.5
aF1.5
asVSLY/GW
p395
(lp396
F1.5
aF1.5
asVBDS.A/KC
p397
(lp398
F1.5
aF1.5
asVME/MSFP
p399
(lp400
F1.5
aF1.5
assg26
(dp401
VGG/100
p402
(lp403
F1.5
aF1.5
asVFLY/CLG
p404
(lp405
F1.5
aF1.5
asVTL/EG
p406
(lp407
F1.5
aF1.5
asVIMT/C9
p408
(lp409
F1.5
aF1.5
asVTSM/DIG
p410
(lp411
F1.5
aF1.5
asssI13
(dp412
g2
(dp413
VXL/AST
p414
(lp415
F1.5
aF1.5
asVBDS/SK
p416
(lp417
F1.5
aF1.5
asVMSF/MAD
p418
(lp419
F1.5
aF1.5
asVVIT/RGE
p420
(lp421
F1.5
aF1.5
asVG2/FNC
p422
(lp423
F1.5
aF1.5
assg14
(dp424
VSLY/OPL
p425
(lp426
F1.5
aF1.5
asVKC/GO
p427
(lp428
F1.5
aF1.5
asVGW/BDS.A
p429
(lp430
F1.5
aF1.5
asVLDLC/MSFP
p431
(lp432
F1.5
aF1.5
asVVITB/ME
p433
(lp434
F1.5
aF1.5
assg26
(dp435
VTL/C9
p436
(lp437
F1.5
aF1.5
asVFLY/100
p438
(lp439
F1.5
aF1.5
asVTSM/EG
p440
(lp441
F1.5
aF1.5
asVIMT/DIG
p442
(lp443
F1.5
aF1.5
asVGG/CLG
p444
(lp445
F1.5
aF1.5
asssI14
(dp446
g2
(dp447
VMAD/XL
p448
(lp449
F1.5
aF1.5
asVBDS/AST
p450
(lp451
F1.5
aF1.5
asVVIT/SK
p452
(lp453
F1.5
aF1.5
asVRGE/FNC
p454
(lp455
F1.5
aF1.5
asVMSF/G2
p456
(lp457
F1.5
aF1.5
assg14
(dp458
VMSFP/GW
p459
(lp460
F1.5
aF1.5
asVSLY/ME
p461
(lp462
F1.5
aF1.5
asVBDS.A/VITB
p463
(lp464
F1.5
aF1.5
asVLDLC/KC
p465
(lp466
F1.5
aF1.5
asVGO/OPL
p467
(lp468
F1.5
aF1.5
assg26
(dp469
VIMT/100
p470
(lp471
F1.5
aF1.5
asVTL/CLG
p472
(lp473
F1.5
aF1.5
asVTSM/C9
p474
(lp475
F1.5
aF1.5
asVEG/DIG
p476
(lp477
F1.5
aF1.5
asVGG/FLY
p478
(lp479
F1.5
aF1.5
asssI15
(dp480
g2
(dp481
VVIT/MSF
p482
(lp483
F1.5
aF1.5
asVSK/AST
p484
(lp485
F1.5
aF1.5
asVRGE/XL
p486
(lp487
F1.5
aF1.5
asVBDS/G2
p488
(lp489
F1.5
aF1.5
asVMAD/FNC
p490
(lp491
F1.5
aF1.5
assg14
(dp492
VOPL/LDLC
p493
(lp494
F1.5
aF1.5
asVGO/SLY
p495
(lp496
F1.5
aF1.5
asVGW/KC
p497
(lp498
F1.5
aF1.5
asVMSFP/VITB
p499
(lp500
F1.5
aF1.5
asVBDS.A/ME
p501
(lp502
F1.5
aF1.5
assg26
(dp503
VEG/100
p504
(lp505
F1.5
aF1.5
asVGG/DIG
p506
(lp507
F1.5
aF1.5
asVTL/FLY
p508
(lp509
F1.5
aF1.5
asVCLG/C9
p510
(lp511
F1.5
aF1.5
asVIMT/TSM
p512
(lp513
F1.5
aF1.5
asssI16
(dp514
g2
(dp515
VSK/RGE
p516
(lp517
F1.5
aF1.5
asVMSF/AST
p518
(lp519
F1.5
aF1.5
asVVIT/MAD
p520
(lp521
F1.5
aF1.5
asVG2/XL
p522
(lp523
F1.5
aF1.5
asVBDS/FNC
p524
(lp525
F1.5
aF1.5
assg14
(dp526
VME/OPL
p527
(lp528
F1.5
aF1.5
asVVITB/GW
p529
(lp530
F1.5
aF1.5
asVBDS.A/LDLC
p531
(lp532
F1.5
aF1.5
asVKC/SLY
p533
(lp534
F1.5
aF1.5
asVMSFP/GO
p535
(lp536
F1.5
aF1.5
assg26
(dp537
VTL/GG
p538
(lp539
F1.5
aF1.5
asVEG/FLY
p540
(lp541
F1.5
aF1.5
asVDIG/C9
p542
(lp543
F1.5
aF1.5
asVIMT/CLG
p544
(lp545
F1.5
aF1.5
asVTSM/100
p546
(lp547
F1.5
aF1.5
asssI17
(dp548
g2
(dp549
VSK/XL
p550
(lp551
F1.5
aF1.5
asVMAD/AST
p552
(lp553
F1.5
aF1.5
asVBDS/RGE
p554
(lp555
F1.5
aF1.5
asVMSF/FNC
p556
(lp557
F1.5
aF1.5
asVVIT/G2
p558
(lp559
F1.5
aF1.5
assg14
(dp560
VOPL/GW
p561
(lp562
F1.5
aF1.5
asVMSFP/BDS.A
p563
(lp564
F1.5
aF1.5
asVSLY/LDLC
p565
(lp566
F1.5
aF1.5
asVKC/VITB
p567
(lp568
F1.5
aF1.5
asVME/GO
p569
(lp570
F1.5
aF1.5
assg26
(dp571
VTL/DIG
p572
(lp573
F1.5
aF1.5
asVGG/EG
p574
(lp575
F1.5
aF1.5
asVC9/100
p576
(lp577
F1.5
aF1.5
asVTSM/CLG
p578
(lp579
F1.5
aF1.5
asVIMT/FLY
p580
(lp581
F1.5
aF1.5
asssI18
(dp582
g2
(dp583
VSK/MSF
p584
(lp585
F1.5
aF1.5
asVVIT/AST
p586
(lp587
F1.5
aF1.5
asVBDS/MAD
p588
(lp589
F1.5
aF1.5
asVFNC/XL
p590
(lp591
F1.5
aF1.5
asVRGE/G2
p592
(lp593
F1.5
aF1.5
assg14
(dp594
VMSFP/SLY
p595
(lp596
F1.5
aF1.5
asVKC/OPL
p597
(lp598
F1.5
aF1.5
asVGW/ME
p599
(lp600
F1.5
aF1.5
asVLDLC/VITB
p601
(lp602
F1.5
aF1.5
asVBDS.A/GO
p603
(lp604
F1.5
aF1.5
assg26
(dp605
VDIG/100
p606
(lp607
F1.5
aF1.5
asVEG/CLG
p608
(lp609
F1.5
aF1.5
asVFLY/C9
p610
(lp611
F1.5
aF1.5
asVIMT/GG
p612
(lp613
F1.5
aF1.5
asVTSM/TL
p614
(lp615
F1.5
aF1.5
asss.