(dp0
I1
(dp1
VLEC
p2
(dp3
VSK/AST
p4
(lp5
F1.5
aF1.5
asVRGE/XL
p6
(lp7
F1.5
aF1.5
asVVIT/MSF
p8
(lp9
F1.5
aF1.5
asVBDS/G2
p10
(lp11
F1.5
aF1.5
asVMAD/FNC
p12
(lp13
F1.5
aF1.5
assVLFL
p14
(dp15
VLDLC/OPL
p16
(lp17
F1.5
aF1.5
asVME/BDS.A
p18
(lp19
F1.5
aF1.5
asVKC/GW
p20
(lp21
F1.5
aF1.5
asVVITB/MSFP
p22
(lp23
F1.5
aF1.5
asVSLY/GO
p24
(lp25
F1.5
aF1.5
assVLCS
p26
(dp27
VTSM/EG
p28
(lp29
F1.5
aF1.5
asVFLY/CLG
p30
(lp31
F1.5
aF1.5
asVTL/100
p32
(lp33
F1.5
aF1.5
asVGG/C9
p34
(lp35
F1.5
aF1.5
asVIMT/DIG
p36
(lp37
F1.5
aF1.5
asssI2
(dp38
g2
(dp39
VSK/AST
p40
(lp41
F1.5
aF1.5
asVRGE/XL
p42
(lp43
F1.5
aF1.5
asVVIT/MSF
p44
(lp45
F1.5
aF1.5
asVBDS/G2
p46
(lp47
F1.5
aF1.5
asVMAD/FNC
p48
(lp49
F1.5
aF1.5
assg14
(dp50
VLDLC/OPL
p51
(lp52
F1.5
aF1.5
asVME/BDS.A
p53
(lp54
F1.5
aF1.5
asVKC/GW
p55
(lp56
F1.5
aF1.5
asVVITB/MSFP
p57
(lp58
F1.5
aF1.5
asVSLY/GO
p59
(lp60
F1.5
aF1.5
assg26
(dp61
VTSM/EG
p62
(lp63
F1.5
aF1.5
asVFLY/CLG
p64
(lp65
F1.5
aF1.5
asVTL/100
p66
(lp67
F1.5
aF1.5
asVGG/C9
p68
(lp69
F1.5
aF1.5
asVIMT/DIG
p70
(lp71
F1.5
aF1.5
asssI3
(dp72
g2
(dp73
VSK/AST
p74
(lp75
F1.5
aF1.5
asVRGE/XL
p76
(lp77
F1.5
aF1.5
asVVIT/MSF
p78
(lp79
F1.5
aF1.5
asVBDS/G2
p80
(lp81
F1.5
aF1.5
asVMAD/FNC
p82
(lp83
F1.5
aF1.5
assg14
(dp84
VLDLC/OPL
p85
(lp86
F1.5
aF1.5
asVME/BDS.A
p87
(lp88
F1.5
aF1.5
asVKC/GW
p89
(lp90
F1.5
aF1.5
asVVITB/MSFP
p91
(lp92
F1.5
aF1.5
asVSLY/GO
p93
(lp94
F1.5
aF1.5
assg26
(dp95
VTSM/EG
p96
(lp97
F1.5
aF1.5
asVFLY/CLG
p98
(lp99
F1.5
aF1.5
asVTL/100
p100
(lp101
F1.5
aF1.5
asVGG/C9
p102
(lp103
F1.5
aF1.5
asVIMT/DIG
p104
(lp105
F1.5
aF1.5
asssI4
(dp106
g2
(dp107
VSK/AST
p108
(lp109
F1.5
aF1.5
asVRGE/XL
p110
(lp111
F1.5
aF1.5
asVVIT/MSF
p112
(lp113
F1.5
aF1.5
asVBDS/G2
p114
(lp115
F1.5
aF1.5
asVMAD/FNC
p116
(lp117
F1.5
aF1.5
assg14
(dp118
VLDLC/OPL
p119
(lp120
F1.5
aF1.5
asVME/BDS.A
p121
(lp122
F1.5
aF1.5
asVKC/GW
p123
(lp124
F1.5
aF1.5
asVVITB/MSFP
p125
(lp126
F1.5
aF1.5
asVSLY/GO
p127
(lp128
F1.5
aF1.5
assg26
(dp129
VTSM/EG
p130
(lp131
F1.5
aF1.5
asVFLY/CLG
p132
(lp133
F1.5
aF1.5
asVTL/100
p134
(lp135
F1.5
aF1.5
asVGG/C9
p136
(lp137
F1.5
aF1.5
asVIMT/DIG
p138
(lp139
F1.5
aF1.5
asssI5
(dp140
g2
(dp141
VSK/AST
p142
(lp143
F1.5
aF1.5
asVRGE/XL
p144
(lp145
F1.5
aF1.5
asVVIT/MSF
p146
(lp147
F1.5
aF1.5
asVBDS/G2
p148
(lp149
F1.5
aF1.5
asVMAD/FNC
p150
(lp151
F1.5
aF1.5
assg14
(dp152
VLDLC/OPL
p153
(lp154
F1.5
aF1.5
asVME/BDS.A
p155
(lp156
F1.5
aF1.5
asVKC/GW
p157
(lp158
F1.5
aF1.5
asVVITB/MSFP
p159
(lp160
F1.5
aF1.5
asVSLY/GO
p161
(lp162
F1.5
aF1.5
assg26
(dp163
VTSM/EG
p164
(lp165
F1.5
aF1.5
asVFLY/CLG
p166
(lp167
F1.5
aF1.5
asVTL/100
p168
(lp169
F1.5
aF1.5
asVGG/C9
p170
(lp171
F1.5
aF1.5
asVIMT/DIG
p172
(lp173
F1.5
aF1.5
asssI6
(dp174
g2
(dp175
VSK/AST
p176
(lp177
F1.5
aF1.5
asVRGE/XL
p178
(lp179
F1.5
aF1.5
asVVIT/MSF
p180
(lp181
F1.5
aF1.5
asVBDS/G2
p182
(lp183
F1.5
aF1.5
asVMAD/FNC
p184
(lp185
F1.5
aF1.5
assg14
(dp186
VLDLC/OPL
p187
(lp188
F1.5
aF1.5
asVME/BDS.A
p189
(lp190
F1.5
aF1.5
asVKC/GW
p191
(lp192
F1.5
aF1.5
asVVITB/MSFP
p193
(lp194
F1.5
aF1.5
asVSLY/GO
p195
(lp196
F1.5
aF1.5
assg26
(dp197
VTSM/EG
p198
(lp199
F1.5
aF1.5
asVFLY/CLG
p200
(lp201
F1.5
aF1.5
asVTL/100
p202
(lp203
F1.5
aF1.5
asVGG/C9
p204
(lp205
F1.5
aF1.5
asVIMT/DIG
p206
(lp207
F1.5
aF1.5
asssI7
(dp208
g2
(dp209
VSK/AST
p210
(lp211
F1.5
aF1.5
asVRGE/XL
p212
(lp213
F1.5
aF1.5
asVVIT/MSF
p214
(lp215
F1.5
aF1.5
asVBDS/G2
p216
(lp217
F1.5
aF1.5
asVMAD/FNC
p218
(lp219
F1.5
aF1.5
assg14
(dp220
VLDLC/OPL
p221
(lp222
F1.5
aF1.5
asVME/BDS.A
p223
(lp224
F1.5
aF1.5
asVKC/GW
p225
(lp226
F1.5
aF1.5
asVVITB/MSFP
p227
(lp228
F1.5
aF1.5
asVSLY/GO
p229
(lp230
F1.5
aF1.5
assg26
(dp231
VTSM/EG
p232
(lp233
F1.5
aF1.5
asVFLY/CLG
p234
(lp235
F1.5
aF1.5
asVTL/100
p236
(lp237
F1.5
aF1.5
asVGG/C9
p238
(lp239
F1.5
aF1.5
asVIMT/DIG
p240
(lp241
F1.5
aF1.5
asssI8
(dp242
g2
(dp243
VSK/AST
p244
(lp245
F1.5
aF1.5
asVRGE/XL
p246
(lp247
F1.5
aF1.5
asVVIT/MSF
p248
(lp249
F1.5
aF1.5
asVBDS/G2
p250
(lp251
F1.5
aF1.5
asVMAD/FNC
p252
(lp253
F1.5
aF1.5
assg14
(dp254
VLDLC/OPL
p255
(lp256
F1.5
aF1.5
asVME/BDS.A
p257
(lp258
F1.5
aF1.5
asVKC/GW
p259
(lp260
F1.5
aF1.5
asVVITB/MSFP
p261
(lp262
F1.5
aF1.5
asVSLY/GO
p263
(lp264
F1.5
aF1.5
assg26
(dp265
VTSM/EG
p266
(lp267
F1.5
aF1.5
asVFLY/CLG
p268
(lp269
F1.5
aF1.5
asVTL/100
p270
(lp271
F1.5
aF1.5
asVGG/C9
p272
(lp273
F1.5
aF1.5
asVIMT/DIG
p274
(lp275
F1.5
aF1.5
asssI9
(dp276
g2
(dp277
VSK/AST
p278
(lp279
F1.5
aF1.5
asVRGE/XL
p280
(lp281
F1.5
aF1.5
asVVIT/MSF
p282
(lp283
F1.5
aF1.5
asVBDS/G2
p284
(lp285
F1.5
aF1.5
asVMAD/FNC
p286
(lp287
F1.5
aF1.5
assg14
(dp288
VLDLC/OPL
p289
(lp290
F1.5
aF1.5
asVME/BDS.A
p291
(lp292
F1.5
aF1.5
asVKC/GW
p293
(lp294
F1.5
aF1.5
asVVITB/MSFP
p295
(lp296
F1.5
aF1.5
asVSLY/GO
p297
(lp298
F1.5
aF1.5
assg26
(dp299
VTSM/EG
p300
(lp301
F1.5
aF1.5
asVFLY/CLG
p302
(lp303
F1.5
aF1.5
asVTL/100
p304
(lp305
F1.5
aF1.5
asVGG/C9
p306
(lp307
F1.5
aF1.5
asVIMT/DIG
p308
(lp309
F1.5
aF1.5
asssI10
(dp310
g2
(dp311
VSK/AST
p312
(lp313
F1.5
aF1.5
asVRGE/XL
p314
(lp315
F1.5
aF1.5
asVVIT/MSF
p316
(lp317
F1.5
aF1.5
asVBDS/G2
p318
(lp319
F1.5
aF1.5
asVMAD/FNC
p320
(lp321
F1.5
aF1.5
assg14
(dp322
VLDLC/OPL
p323
(lp324
F1.5
aF1.5
asVME/BDS.A
p325
(lp326
F1.5
aF1.5
asVKC/GW
p327
(lp328
F1.5
aF1.5
asVVITB/MSFP
p329
(lp330
F1.5
aF1.5
asVSLY/GO
p331
(lp332
F1.5
aF1.5
assg26
(dp333
VTSM/EG
p334
(lp335
F1.5
aF1.5
asVFLY/CLG
p336
(lp337
F1.5
aF1.5
asVTL/100
p338
(lp339
F1.5
aF1.5
asVGG/C9
p340
(lp341
F1.5
aF1.5
asVIMT/DIG
p342
(lp343
F1.5
aF1.5
asssI11
(dp344
g2
(dp345
VSK/AST
p346
(lp347
F1.5
aF1.5
asVRGE/XL
p348
(lp349
F1.5
aF1.5
asVVIT/MSF
p350
(lp351
F1.5
aF1.5
asVBDS/G2
p352
(lp353
F1.5
aF1.5
asVMAD/FNC
p354
(lp355
F1.5
aF1.5
assg14
(dp356
VLDLC/OPL
p357
(lp358
F1.5
aF1.5
asVME/BDS.A
p359
(lp360
F1.5
aF1.5
asVKC/GW
p361
(lp362
F1.5
aF1.5
asVVITB/MSFP
p363
(lp364
F1.5
aF1.5
asVSLY/GO
p365
(lp366
F1.5
aF1.5
assg26
(dp367
VTSM/EG
p368
(lp369
F1.5
aF1.5
asVFLY/CLG
p370
(lp371
F1.5
aF1.5
asVTL/100
p372
(lp373
F1.5
aF1.5
asVGG/C9
p374
(lp375
F1.5
aF1.5
asVIMT/DIG
p376
(lp377
F1.5
aF1.5
asssI12
(dp378
g2
(dp379
VSK/AST
p380
(lp381
F1.5
aF1.5
asVRGE/XL
p382
(lp383
F1.5
aF1.5
asVVIT/MSF
p384
(lp385
F1.5
aF1.5
asVBDS/G2
p386
(lp387
F1.5
aF1.5
asVMAD/FNC
p388
(lp389
F1.5
aF1.5
assg14
(dp390
VLDLC/OPL
p391
(lp392
F1.5
aF1.5
asVME/BDS.A
p393
(lp394
F1.5
aF1.5
asVKC/GW
p395
(lp396
F1.5
aF1.5
asVVITB/MSFP
p397
(lp398
F1.5
aF1.5
asVSLY/GO
p399
(lp400
F1.5
aF1.5
assg26
(dp401
VTSM/EG
p402
(lp403
F1.5
aF1.5
asVFLY/CLG
p404
(lp405
F1.5
aF1.5
asVTL/100
p406
(lp407
F1.5
aF1.5
asVGG/C9
p408
(lp409
F1.5
aF1.5
asVIMT/DIG
p410
(lp411
F1.5
aF1.5
asssI13
(dp412
g2
(dp413
VSK/AST
p414
(lp415
F1.5
aF1.5
asVRGE/XL
p416
(lp417
F1.5
aF1.5
asVVIT/MSF
p418
(lp419
F1.5
aF1.5
asVBDS/G2
p420
(lp421
F1.5
aF1.5
asVMAD/FNC
p422
(lp423
F1.5
aF1.5
assg14
(dp424
VLDLC/OPL
p425
(lp426
F1.5
aF1.5
asVME/BDS.A
p427
(lp428
F1.5
aF1.5
asVKC/GW
p429
(lp430
F1.5
aF1.5
asVVITB/MSFP
p431
(lp432
F1.5
aF1.5
asVSLY/GO
p433
(lp434
F1.5
aF1.5
assg26
(dp435
VTSM/EG
p436
(lp437
F1.5
aF1.5
asVFLY/CLG
p438
(lp439
F1.5
aF1.5
asVTL/100
p440
(lp441
F1.5
aF1.5
asVGG/C9
p442
(lp443
F1.5
aF1.5
asVIMT/DIG
p444
(lp445
F1.5
aF1.5
asssI14
(dp446
g2
(dp447
VSK/AST
p448
(lp449
F1.5
aF1.5
asVRGE/XL
p450
(lp451
F1.5
aF1.5
asVVIT/MSF
p452
(lp453
F1.5
aF1.5
asVBDS/G2
p454
(lp455
F1.5
aF1.5
asVMAD/FNC
p456
(lp457
F1.5
aF1.5
assg14
(dp458
VLDLC/OPL
p459
(lp460
F1.5
aF1.5
asVME/BDS.A
p461
(lp462
F1.5
aF1.5
asVKC/GW
p463
(lp464
F1.5
aF1.5
asVVITB/MSFP
p465
(lp466
F1.5
aF1.5
asVSLY/GO
p467
(lp468
F1.5
aF1.5
assg26
(dp469
VTSM/EG
p470
(lp471
F1.5
aF1.5
asVFLY/CLG
p472
(lp473
F1.5
aF1.5
asVTL/100
p474
(lp475
F1.5
aF1.5
asVGG/C9
p476
(lp477
F1.5
aF1.5
asVIMT/DIG
p478
(lp479
F1.5
aF1.5
asssI15
(dp480
g2
(dp481
VSK/AST
p482
(lp483
F1.5
aF1.5
asVRGE/XL
p484
(lp485
F1.5
aF1.5
asVVIT/MSF
p486
(lp487
F1.5
aF1.5
asVBDS/G2
p488
(lp489
F1.5
aF1.5
asVMAD/FNC
p490
(lp491
F1.5
aF1.5
assg14
(dp492
VLDLC/OPL
p493
(lp494
F1.5
aF1.5
asVME/BDS.A
p495
(lp496
F1.5
aF1.5
asVKC/GW
p497
(lp498
F1.5
aF1.5
asVVITB/MSFP
p499
(lp500
F1.5
aF1.5
asVSLY/GO
p501
(lp502
F1.5
aF1.5
assg26
(dp503
VTSM/EG
p504
(lp505
F1.5
aF1.5
asVFLY/CLG
p506
(lp507
F1.5
aF1.5
asVTL/100
p508
(lp509
F1.5
aF1.5
asVGG/C9
p510
(lp511
F1.5
aF1.5
asVIMT/DIG
p512
(lp513
F1.5
aF1.5
asssI16
(dp514
g2
(dp515
VSK/AST
p516
(lp517
F1.5
aF1.5
asVRGE/XL
p518
(lp519
F1.5
aF1.5
asVVIT/MSF
p520
(lp521
F1.5
aF1.5
asVBDS/G2
p522
(lp523
F1.5
aF1.5
asVMAD/FNC
p524
(lp525
F1.5
aF1.5
assg14
(dp526
VLDLC/OPL
p527
(lp528
F1.5
aF1.5
asVME/BDS.A
p529
(lp530
F1.5
aF1.5
asVKC/GW
p531
(lp532
F1.5
aF1.5
asVVITB/MSFP
p533
(lp534
F1.5
aF1.5
asVSLY/GO
p535
(lp536
F1.5
aF1.5
assg26
(dp537
VTSM/EG
p538
(lp539
F1.5
aF1.5
asVFLY/CLG
p540
(lp541
F1.5
aF1.5
asVTL/100
p542
(lp543
F1.5
aF1.5
asVGG/C9
p544
(lp545
F1.5
aF1.5
asVIMT/DIG
p546
(lp547
F1.5
aF1.5
asssI17
(dp548
g2
(dp549
VSK/AST
p550
(lp551
F1.5
aF1.5
asVRGE/XL
p552
(lp553
F1.5
aF1.5
asVVIT/MSF
p554
(lp555
F1.5
aF1.5
asVBDS/G2
p556
(lp557
F1.5
aF1.5
asVMAD/FNC
p558
(lp559
F1.5
aF1.5
assg14
(dp560
VLDLC/OPL
p561
(lp562
F1.5
aF1.5
asVME/BDS.A
p563
(lp564
F1.5
aF1.5
asVKC/GW
p565
(lp566
F1.5
aF1.5
asVVITB/MSFP
p567
(lp568
F1.5
aF1.5
asVSLY/GO
p569
(lp570
F1.5
aF1.5
assg26
(dp571
VTSM/EG
p572
(lp573
F1.5
aF1.5
asVFLY/CLG
p574
(lp575
F1.5
aF1.5
asVTL/100
p576
(lp577
F1.5
aF1.5
asVGG/C9
p578
(lp579
F1.5
aF1.5
asVIMT/DIG
p580
(lp581
F1.5
aF1.5
asssI18
(dp582
g2
(dp583
VSK/AST
p584
(lp585
F1.5
aF1.5
asVRGE/XL
p586
(lp587
F1.5
aF1.5
asVVIT/MSF
p588
(lp589
F1.5
aF1.5
asVBDS/G2
p590
(lp591
F1.5
aF1.5
asVMAD/FNC
p592
(lp593
F1.5
aF1.5
assg14
(dp594
VLDLC/OPL
p595
(lp596
F1.5
aF1.5
asVME/BDS.A
p597
(lp598
F1.5
aF1.5
asVKC/GW
p599
(lp600
F1.5
aF1.5
asVVITB/MSFP
p601
(lp602
F1.5
aF1.5
asVSLY/GO
p603
(lp604
F1.5
aF1.5
assg26
(dp605
VTSM/EG
p606
(lp607
F1.5
aF1.5
asVFLY/CLG
p608
(lp609
F1.5
aF1.5
asVTL/100
p610
(lp611
F1.5
aF1.5
asVGG/C9
p612
(lp613
F1.5
aF1.5
asVIMT/DIG
p614
(lp615
F1.5
aF1.5
asss.